target datalayout = "e-m:e-p270:32:32-p271:32:32-p272:64:64-i64:64-i128:128-f80:128-n8:16:32:64-S128"
target triple = "x86_64-pc-linux-gnu"

%"class.llvm::SmallVectorBase" = type { ptr, i32, i32 }
%"class.llvm::SmallPtrSetImplBase.base" = type <{ ptr, ptr, i32, i32, i32 }>
%"class.llvm::SlotIndex" = type { %"class.llvm::PointerIntPair" }
%"class.llvm::PointerIntPair" = type { %"struct.llvm::detail::PunnedPointer" }
%"struct.llvm::detail::PunnedPointer" = type { [8 x i8] }
%"struct.std::pair" = type { %"class.llvm::SlotIndex", %"class.llvm::SlotIndex" }
%"class.llvm::BumpPtrAllocatorImpl" = type { ptr, ptr, %"class.llvm::SmallVector.8", %"class.llvm::SmallVector.13", i64, i64 }
%"class.llvm::SmallVector.8" = type { %"class.llvm::SmallVectorImpl.9", %"struct.llvm::SmallVectorStorage.12" }
%"class.llvm::SmallVectorImpl.9" = type { %"class.llvm::SmallVectorTemplateBase.10" }
%"class.llvm::SmallVectorTemplateBase.10" = type { %"class.llvm::SmallVectorTemplateCommon.11" }
%"class.llvm::SmallVectorTemplateCommon.11" = type { %"class.llvm::SmallVectorBase" }
%"struct.llvm::SmallVectorStorage.12" = type { [32 x i8] }
%"class.llvm::SmallVector.13" = type { %"class.llvm::SmallVectorImpl.14" }
%"class.llvm::SmallVectorImpl.14" = type { %"class.llvm::SmallVectorTemplateBase.15" }
%"class.llvm::SmallVectorTemplateBase.15" = type { %"class.llvm::SmallVectorTemplateCommon.16" }
%"class.llvm::SmallVectorTemplateCommon.16" = type { %"class.llvm::SmallVectorBase" }
%"class.llvm::BitVector" = type <{ %"class.llvm::SmallVector.107", i32, [4 x i8] }>
%"class.llvm::SmallVector.107" = type { %"class.llvm::SmallVectorImpl.108", %"struct.llvm::SmallVectorStorage.111" }
%"class.llvm::SmallVectorImpl.108" = type { %"class.llvm::SmallVectorTemplateBase.109" }
%"class.llvm::SmallVectorTemplateBase.109" = type { %"class.llvm::SmallVectorTemplateCommon.110" }
%"class.llvm::SmallVectorTemplateCommon.110" = type { %"class.llvm::SmallVectorBase" }
%"struct.llvm::SmallVectorStorage.111" = type { [48 x i8] }
%"class.llvm::Register" = type { i32 }
%"class.llvm::LiveRange" = type { %"class.llvm::SmallVector.81", %"class.llvm::SmallVector.86", %"class.std::unique_ptr.91" }
%"class.llvm::SmallVector.81" = type { %"class.llvm::SmallVectorImpl.82", %"struct.llvm::SmallVectorStorage.85" }
%"class.llvm::SmallVectorImpl.82" = type { %"class.llvm::SmallVectorTemplateBase.83" }
%"class.llvm::SmallVectorTemplateBase.83" = type { %"class.llvm::SmallVectorTemplateCommon.84" }
%"class.llvm::SmallVectorTemplateCommon.84" = type { %"class.llvm::SmallVectorBase" }
%"struct.llvm::SmallVectorStorage.85" = type { [48 x i8] }
%"class.llvm::SmallVector.86" = type { %"class.llvm::SmallVectorImpl.87", %"struct.llvm::SmallVectorStorage.90" }
%"class.llvm::SmallVectorImpl.87" = type { %"class.llvm::SmallVectorTemplateBase.88" }
%"class.llvm::SmallVectorTemplateBase.88" = type { %"class.llvm::SmallVectorTemplateCommon.89" }
%"class.llvm::SmallVectorTemplateCommon.89" = type { %"class.llvm::SmallVectorBase" }
%"struct.llvm::SmallVectorStorage.90" = type { [16 x i8] }
%"class.std::unique_ptr.91" = type { %"struct.std::__uniq_ptr_data.92" }
%"struct.std::__uniq_ptr_data.92" = type { %"class.std::__uniq_ptr_impl.93" }
%"class.std::__uniq_ptr_impl.93" = type { %"class.std::tuple.94" }
%"class.std::tuple.94" = type { %"struct.std::_Tuple_impl.95" }
%"struct.std::_Tuple_impl.95" = type { %"struct.std::_Head_base.98" }
%"struct.std::_Head_base.98" = type { ptr }
%"class.llvm::LiveInterval" = type { %"class.llvm::LiveRange", ptr, %"class.llvm::Register", float }
%"class.llvm::SplitEditor" = type { ptr, ptr, ptr, ptr, ptr, ptr, ptr, ptr, ptr, ptr, i32, i32, %"class.llvm::RecyclingAllocator", %"class.llvm::IntervalMap", %"class.llvm::DenseMap.327", [2 x %"class.llvm::LiveIntervalCalc"] }
%"class.llvm::RecyclingAllocator" = type { %"class.llvm::Recycler.323", %"class.llvm::BumpPtrAllocatorImpl" }
%"class.llvm::Recycler.323" = type { ptr }
%"class.llvm::IntervalMap" = type { %union.anon.324, i32, i32, ptr }
%union.anon.324 = type { %"class.llvm::IntervalMapImpl::LeafNode" }
%"class.llvm::IntervalMapImpl::LeafNode" = type { %"class.llvm::IntervalMapImpl::NodeBase.base", [4 x i8] }
%"class.llvm::IntervalMapImpl::NodeBase.base" = type { [9 x %"struct.std::pair"], [9 x i32] }
%"class.llvm::DenseMap.327" = type <{ ptr, i32, i32, i32, [4 x i8] }>
%"class.llvm::LiveIntervalCalc" = type { %"class.llvm::LiveRangeCalc" }
%"class.llvm::LiveRangeCalc" = type { ptr, ptr, ptr, ptr, ptr, %"class.llvm::BitVector", %"class.llvm::DenseMap.330", %"class.llvm::IndexedMap.333", %"class.llvm::SmallVector.342" }
%"class.llvm::DenseMap.330" = type <{ ptr, i32, i32, i32, [4 x i8] }>
%"class.llvm::IndexedMap.333" = type <{ %"class.llvm::SmallVector.334", %"struct.std::pair.339", [8 x i8] }>
%"class.llvm::SmallVector.334" = type { %"class.llvm::SmallVectorImpl.335" }
%"class.llvm::SmallVectorImpl.335" = type { %"class.llvm::SmallVectorTemplateBase.336" }
%"class.llvm::SmallVectorTemplateBase.336" = type { %"class.llvm::SmallVectorTemplateCommon.337" }
%"class.llvm::SmallVectorTemplateCommon.337" = type { %"class.llvm::SmallVectorBase" }
%"struct.std::pair.339" = type { ptr, ptr }
%"class.llvm::SmallVector.342" = type { %"class.llvm::SmallVectorImpl.343", %"struct.llvm::SmallVectorStorage.346" }
%"class.llvm::SmallVectorImpl.343" = type { %"class.llvm::SmallVectorTemplateBase.344" }
%"class.llvm::SmallVectorTemplateBase.344" = type { %"class.llvm::SmallVectorTemplateCommon.345" }
%"class.llvm::SmallVectorTemplateCommon.345" = type { %"class.llvm::SmallVectorBase" }
%"struct.llvm::SmallVectorStorage.346" = type { [512 x i8] }
%"class.llvm::LiveRangeEdit" = type { %"class.llvm::MachineRegisterInfo::Delegate", ptr, ptr, ptr, ptr, ptr, ptr, ptr, i32, i8, ptr, %"class.llvm::SmallPtrSet.378", %"class.llvm::SmallPtrSet.378" }
%"class.llvm::MachineRegisterInfo::Delegate" = type { ptr }
%"class.llvm::SmallPtrSet.378" = type { %"class.llvm::SmallPtrSetImpl.base.380", [4 x ptr] }
%"class.llvm::SmallPtrSetImpl.base.380" = type { %"class.llvm::SmallPtrSetImplBase.base" }

; Function Attrs: mustprogress nounwind uwtable
define linkonce_odr hidden i32 @_ZNK4llvm12LiveInterval3regEv(ptr noundef nonnull align 8 dereferenceable(120) %0) #1 comdat align 2 {
  %2 = alloca %"class.llvm::Register", align 4
  %3 = alloca ptr, align 8
  store ptr %0, ptr %3, align 8
  %4 = load ptr, ptr %3, align 8
  %5 = getelementptr inbounds nuw %"class.llvm::LiveInterval", ptr %4, i32 0, i32 2
  call void @llvm.memcpy.p0.p0.i64(ptr align 4 %2, ptr align 8 %5, i64 4, i1 false)
  %6 = getelementptr inbounds nuw %"class.llvm::Register", ptr %2, i32 0, i32 0
  %7 = load i32, ptr %6, align 4
  ret i32 %7
}

; Function Attrs: mustprogress nounwind uwtable
define linkonce_odr hidden noundef nonnull align 8 dereferenceable(120) ptr @_ZNK4llvm13LiveRangeEdit9getParentEv(ptr noundef nonnull align 8 dereferenceable(208) %0) #1 comdat align 2 {
  %2 = alloca ptr, align 8
  store ptr %0, ptr %2, align 8
  %3 = load ptr, ptr %2, align 8
  %4 = getelementptr inbounds nuw %"class.llvm::LiveRangeEdit", ptr %3, i32 0, i32 1
  %5 = load ptr, ptr %4, align 8
  ret ptr %5
}

; Function Attrs: mustprogress nounwind uwtable
define linkonce_odr hidden i32 @_ZNK4llvm13LiveRangeEdit6getRegEv(ptr noundef nonnull align 8 dereferenceable(208) %0) #1 comdat align 2 {
  %2 = alloca %"class.llvm::Register", align 4
  %3 = alloca ptr, align 8
  store ptr %0, ptr %3, align 8
  %4 = load ptr, ptr %3, align 8
  %5 = call noundef nonnull align 8 dereferenceable(120) ptr @_ZNK4llvm13LiveRangeEdit9getParentEv(ptr noundef nonnull align 8 dereferenceable(208) %4)
  %6 = call i32 @_ZNK4llvm12LiveInterval3regEv(ptr noundef nonnull align 8 dereferenceable(120) %5)
  %7 = getelementptr inbounds nuw %"class.llvm::Register", ptr %2, i32 0, i32 0
  store i32 %6, ptr %7, align 4
  %8 = getelementptr inbounds nuw %"class.llvm::Register", ptr %2, i32 0, i32 0
  %9 = load i32, ptr %8, align 4
  ret i32 %9
}

; Function Attrs: mustprogress nounwind uwtable
define linkonce_odr hidden noundef i32 @_ZNK4llvm13LiveRangeEdit4sizeEv(ptr noundef nonnull align 8 dereferenceable(208) %0) #1 comdat align 2 {
  %2 = alloca ptr, align 8
  store ptr %0, ptr %2, align 8
  %3 = load ptr, ptr %2, align 8
  %4 = getelementptr inbounds nuw %"class.llvm::LiveRangeEdit", ptr %3, i32 0, i32 2
  %5 = load ptr, ptr %4, align 8
  %6 = call noundef i64 @_ZNK4llvm15SmallVectorBaseIjE4sizeEv(ptr noundef nonnull align 8 dereferenceable(16) %5)
  %7 = getelementptr inbounds nuw %"class.llvm::LiveRangeEdit", ptr %3, i32 0, i32 8
  %8 = load i32, ptr %7, align 8
  %9 = zext i32 %8 to i64
  %10 = sub i64 %6, %9
  %11 = trunc i64 %10 to i32
  ret i32 %11
}

; Function Attrs: mustprogress nounwind uwtable
define linkonce_odr hidden noundef nonnull align 8 dereferenceable(120) ptr @_ZN4llvm13LiveRangeEdit19createEmptyIntervalEv(ptr noundef nonnull align 8 dereferenceable(208) %0) #1 comdat align 2 {
  %2 = alloca ptr, align 8
  %3 = alloca %"class.llvm::Register", align 4
  store ptr %0, ptr %2, align 8
  %4 = load ptr, ptr %2, align 8
  %5 = call i32 @_ZNK4llvm13LiveRangeEdit6getRegEv(ptr noundef nonnull align 8 dereferenceable(208) %4)
  %6 = getelementptr inbounds nuw %"class.llvm::Register", ptr %3, i32 0, i32 0
  store i32 %5, ptr %6, align 4
  %7 = getelementptr inbounds nuw %"class.llvm::Register", ptr %3, i32 0, i32 0
  %8 = load i32, ptr %7, align 4
  %9 = call noundef nonnull align 8 dereferenceable(120) ptr @_ZN4llvm13LiveRangeEdit23createEmptyIntervalFromENS_8RegisterEb(ptr noundef nonnull align 8 dereferenceable(208) %4, i32 %8, i1 noundef zeroext true)
  ret ptr %9
}

; Function Attrs: mustprogress nounwind uwtable
define linkonce_odr hidden noundef zeroext i1 @_ZNK4llvm13LiveRangeEdit5emptyEv(ptr noundef nonnull align 8 dereferenceable(208) %0) #1 comdat align 2 {
  %2 = alloca ptr, align 8
  store ptr %0, ptr %2, align 8
  %3 = load ptr, ptr %2, align 8
  %4 = call noundef i32 @_ZNK4llvm13LiveRangeEdit4sizeEv(ptr noundef nonnull align 8 dereferenceable(208) %3)
  %5 = icmp eq i32 %4, 0
  ret i1 %5
}

; Function Attrs: mustprogress nounwind uwtable
define hidden noundef i32 @_ZN4llvm11SplitEditor8openIntvEv(ptr noundef nonnull align 8 dereferenceable(1824) %0) #1 align 2 {
  %2 = alloca ptr, align 8
  store ptr %0, ptr %2, align 8
  %3 = load ptr, ptr %2, align 8
  %4 = getelementptr inbounds nuw %"class.llvm::SplitEditor", ptr %3, i32 0, i32 9
  %5 = load ptr, ptr %4, align 8
  %6 = call noundef zeroext i1 @_ZNK4llvm13LiveRangeEdit5emptyEv(ptr noundef nonnull align 8 dereferenceable(208) %5)
  br i1 %6, label %7, label %11

7:                                                ; preds = %1
  %8 = getelementptr inbounds nuw %"class.llvm::SplitEditor", ptr %3, i32 0, i32 9
  %9 = load ptr, ptr %8, align 8
  %10 = call noundef nonnull align 8 dereferenceable(120) ptr @_ZN4llvm13LiveRangeEdit19createEmptyIntervalEv(ptr noundef nonnull align 8 dereferenceable(208) %9)
  br label %11

11:                                               ; preds = %7, %1
  %12 = getelementptr inbounds nuw %"class.llvm::SplitEditor", ptr %3, i32 0, i32 9
  %13 = load ptr, ptr %12, align 8
  %14 = call noundef i32 @_ZNK4llvm13LiveRangeEdit4sizeEv(ptr noundef nonnull align 8 dereferenceable(208) %13)
  %15 = getelementptr inbounds nuw %"class.llvm::SplitEditor", ptr %3, i32 0, i32 10
  store i32 %14, ptr %15, align 8
  %16 = getelementptr inbounds nuw %"class.llvm::SplitEditor", ptr %3, i32 0, i32 9
  %17 = load ptr, ptr %16, align 8
  %18 = call noundef nonnull align 8 dereferenceable(120) ptr @_ZN4llvm13LiveRangeEdit19createEmptyIntervalEv(ptr noundef nonnull align 8 dereferenceable(208) %17)
  %19 = getelementptr inbounds nuw %"class.llvm::SplitEditor", ptr %3, i32 0, i32 10
  %20 = load i32, ptr %19, align 8
  ret i32 %20
}