; Function Attrs: mustprogress nounwind uwtable
define hidden noundef i32 @_ZN4llvm11SplitEditor8openIntvEv(ptr noundef nonnull align 8 captures(none) dereferenceable(1824) initializes((80, 84)) %0) local_unnamed_addr #0 align 2 {
  %2 = getelementptr inbounds nuw i8, ptr %0, i64 72
  %3 = load ptr, ptr %2, align 8
  %4 = getelementptr inbounds nuw i8, ptr %3, i64 16
  %5 = load ptr, ptr %4, align 8
  %6 = tail call noundef i64 @_ZNK4llvm15SmallVectorBaseIjE4sizeEv(ptr noundef nonnull align 8 dereferenceable(16) %5) #17
  %7 = getelementptr inbounds nuw i8, ptr %3, i64 64
  %8 = load i32, ptr %7, align 8
  %9 = trunc i64 %6 to i32
  %10 = icmp eq i32 %8, %9
  br i1 %10, label %11, label %17

11:                                               ; preds = %1
  %12 = load ptr, ptr %2, align 8
  %13 = getelementptr inbounds nuw i8, ptr %12, i64 8
  %14 = load ptr, ptr %13, align 8
  %15 = getelementptr inbounds nuw i8, ptr %14, i64 112
  %.sroa.0.0.copyload.i.i.i = load i32, ptr %15, align 8
  %16 = tail call noundef nonnull align 8 dereferenceable(120) ptr @_ZN4llvm13LiveRangeEdit23createEmptyIntervalFromENS_8RegisterEb(ptr noundef nonnull align 8 dereferenceable(208) %12, i32 %.sroa.0.0.copyload.i.i.i, i1 noundef zeroext true) #17
  br label %17

17:                                               ; preds = %11, %1
  %18 = load ptr, ptr %2, align 8
  %19 = getelementptr inbounds nuw i8, ptr %18, i64 16
  %20 = load ptr, ptr %19, align 8
  %21 = tail call noundef i64 @_ZNK4llvm15SmallVectorBaseIjE4sizeEv(ptr noundef nonnull align 8 dereferenceable(16) %20) #17
  %22 = getelementptr inbounds nuw i8, ptr %18, i64 64
  %23 = load i32, ptr %22, align 8
  %24 = trunc i64 %21 to i32
  %25 = sub i32 %24, %23
  %26 = getelementptr inbounds nuw i8, ptr %0, i64 80
  store i32 %25, ptr %26, align 8
  %27 = load ptr, ptr %2, align 8
  %28 = getelementptr inbounds nuw i8, ptr %27, i64 8
  %29 = load ptr, ptr %28, align 8
  %30 = getelementptr inbounds nuw i8, ptr %29, i64 112
  %.sroa.0.0.copyload.i.i.i1 = load i32, ptr %30, align 8
  %31 = tail call noundef nonnull align 8 dereferenceable(120) ptr @_ZN4llvm13LiveRangeEdit23createEmptyIntervalFromENS_8RegisterEb(ptr noundef nonnull align 8 dereferenceable(208) %27, i32 %.sroa.0.0.copyload.i.i.i1, i1 noundef zeroext true) #17
  %32 = load i32, ptr %26, align 8
  ret i32 %32
}